; Function Attrs: mustprogress uwtable
define internal void @_ZN10__cxxabiv1L27dependent_exception_cleanupE19_Unwind_Reason_CodeP17_Unwind_Exception(i32 noundef %0, ptr noundef %1) #9 personality ptr @__gxx_personality_v0 {
  %.not = icmp eq i32 %0, 1
  br i1 %.not, label %6, label %3

3:                                                ; preds = %2
  %4 = getelementptr inbounds i8, ptr %1, i64 -56
  %5 = load ptr, ptr %4, align 8, !tbaa !30
  tail call void @_ZSt11__terminatePFvvE(ptr noundef %5) #16
  unreachable

6:                                                ; preds = %2
  %7 = getelementptr inbounds i8, ptr %1, i64 -88
  %8 = load ptr, ptr %7, align 8, !tbaa !26
  %.not.i = icmp eq ptr %8, null
  br i1 %.not.i, label %__cxa_decrement_exception_refcount.exit, label %9

9:                                                ; preds = %6
  %10 = getelementptr inbounds i8, ptr %8, i64 -128
  %11 = getelementptr inbounds i8, ptr %8, i64 -120
  %12 = atomicrmw add ptr %11, i64 -1 seq_cst, align 8
  %13 = icmp eq i64 %12, 1
  br i1 %13, label %14, label %__cxa_decrement_exception_refcount.exit

14:                                               ; preds = %9
  %15 = getelementptr inbounds i8, ptr %8, i64 -104
  %16 = load ptr, ptr %15, align 8, !tbaa !24
  %.not8.i = icmp eq ptr %16, null
  br i1 %.not8.i, label %18, label %17

17:                                               ; preds = %14
  invoke void %16(ptr noundef nonnull %8)
          to label %18 unwind label %22

18:                                               ; preds = %17, %14
  invoke void @_ZN10__cxxabiv128__aligned_free_with_fallbackEPv(ptr noundef nonnull %10)
          to label %__cxa_decrement_exception_refcount.exit unwind label %19

19:                                               ; preds = %18
  %20 = landingpad { ptr, i32 }
          catch ptr null
  %21 = extractvalue { ptr, i32 } %20, 0
  tail call void @__clang_call_terminate(ptr %21) #16
  unreachable

22:                                               ; preds = %17
  %23 = landingpad { ptr, i32 }
          catch ptr null
  %24 = extractvalue { ptr, i32 } %23, 0
  tail call void @__clang_call_terminate(ptr %24) #16
  unreachable

__cxa_decrement_exception_refcount.exit:          ; preds = %6, %9, %18
  %25 = getelementptr inbounds i8, ptr %1, i64 -96
  tail call void @_ZN10__cxxabiv128__aligned_free_with_fallbackEPv(ptr noundef nonnull %25)
  ret void
}